target datalayout = "e-m:e-p270:32:32-p271:32:32-p272:64:64-i64:64-i128:128-f80:128-n8:16:32:64-S128"
target triple = "x86_64-pc-linux-gnu"

%struct.ogg_page = type { ptr, i64, ptr, i64 }
%struct.FLAC__StreamEncoder = type { ptr, ptr }
%struct.FLAC__StreamEncoderProtected = type { i32, i32, i32, i32, i32, i32, i32, i32, i32, i32, i32, [32 x %struct.FLAC__ApodizationSpecification], i32, i32, i32, i32, i32, i32, i32, i32, i64, i32, ptr, i32, i32, i64, i64, i64, %struct.FLAC__OggEncoderAspect }
%struct.FLAC__ApodizationSpecification = type { i32, %union.anon }
%union.anon = type { %struct.anon.1 }
%struct.anon.1 = type { float, float, float }
%struct.FLAC__OggEncoderAspect = type { i64, i32, %struct.ogg_stream_state, %struct.ogg_page, i32, i32, i64, i64 }
%struct.ogg_stream_state = type { ptr, i64, i64, i64, ptr, ptr, i64, i64, i64, i64, [282 x i8], i32, i32, i32, i64, i64, i64, i64 }

; Function Attrs: nounwind sspstrong uwtable
define internal i32 @full_read_(ptr noundef %0, ptr noundef %1, i64 noundef %2, ptr noundef %3, ptr noundef %4) #0 {
  %6 = alloca i32, align 4
  %7 = alloca ptr, align 8
  %8 = alloca ptr, align 8
  %9 = alloca i64, align 8
  %10 = alloca ptr, align 8
  %11 = alloca ptr, align 8
  %12 = alloca i64, align 8
  %13 = alloca i32, align 4
  store ptr %0, ptr %7, align 8, !tbaa !3
  store ptr %1, ptr %8, align 8, !tbaa !31
  store i64 %2, ptr %9, align 8, !tbaa !14
  store ptr %3, ptr %10, align 8, !tbaa !3
  store ptr %4, ptr %11, align 8, !tbaa !3
  br label %14

14:                                               ; preds = %60, %5
  %15 = load i64, ptr %9, align 8, !tbaa !14
  %16 = icmp ugt i64 %15, 0
  br i1 %16, label %17, label %61

17:                                               ; preds = %14
  call void @llvm.lifetime.start.p0(i64 8, ptr %12) #9
  %18 = load i64, ptr %9, align 8, !tbaa !14
  store i64 %18, ptr %12, align 8, !tbaa !14
  %19 = load ptr, ptr %10, align 8, !tbaa !3
  %20 = load ptr, ptr %7, align 8, !tbaa !3
  %21 = load ptr, ptr %8, align 8, !tbaa !31
  %22 = load ptr, ptr %11, align 8, !tbaa !3
  %23 = call i32 %19(ptr noundef %20, ptr noundef %21, ptr noundef %12, ptr noundef %22)
  switch i32 %23, label %52 [
    i32 0, label %24
    i32 1, label %31
    i32 2, label %46
    i32 3, label %51
  ]

24:                                               ; preds = %17
  %25 = load i64, ptr %12, align 8, !tbaa !14
  %26 = load i64, ptr %9, align 8, !tbaa !14
  %27 = sub i64 %26, %25
  store i64 %27, ptr %9, align 8, !tbaa !14
  %28 = load i64, ptr %12, align 8, !tbaa !14
  %29 = load ptr, ptr %8, align 8, !tbaa !31
  %30 = getelementptr inbounds nuw i8, ptr %29, i64 %28
  store ptr %30, ptr %8, align 8, !tbaa !31
  br label %57

31:                                               ; preds = %17
  %32 = load i64, ptr %12, align 8, !tbaa !14
  %33 = icmp eq i64 %32, 0
  br i1 %33, label %34, label %39

34:                                               ; preds = %31
  %35 = load ptr, ptr %7, align 8, !tbaa !3
  %36 = getelementptr inbounds nuw %struct.FLAC__StreamEncoder, ptr %35, i32 0, i32 0
  %37 = load ptr, ptr %36, align 8, !tbaa !17
  %38 = getelementptr inbounds nuw %struct.FLAC__StreamEncoderProtected, ptr %37, i32 0, i32 0
  store i32 2, ptr %38, align 8, !tbaa !21
  store i32 0, ptr %6, align 4
  store i32 1, ptr %13, align 4
  br label %58

39:                                               ; preds = %31
  %40 = load i64, ptr %12, align 8, !tbaa !14
  %41 = load i64, ptr %9, align 8, !tbaa !14
  %42 = sub i64 %41, %40
  store i64 %42, ptr %9, align 8, !tbaa !14
  %43 = load i64, ptr %12, align 8, !tbaa !14
  %44 = load ptr, ptr %8, align 8, !tbaa !31
  %45 = getelementptr inbounds nuw i8, ptr %44, i64 %43
  store ptr %45, ptr %8, align 8, !tbaa !31
  br label %57

46:                                               ; preds = %17
  %47 = load ptr, ptr %7, align 8, !tbaa !3
  %48 = getelementptr inbounds nuw %struct.FLAC__StreamEncoder, ptr %47, i32 0, i32 0
  %49 = load ptr, ptr %48, align 8, !tbaa !17
  %50 = getelementptr inbounds nuw %struct.FLAC__StreamEncoderProtected, ptr %49, i32 0, i32 0
  store i32 5, ptr %50, align 8, !tbaa !21
  store i32 0, ptr %6, align 4
  store i32 1, ptr %13, align 4
  br label %58

51:                                               ; preds = %17
  store i32 0, ptr %6, align 4
  store i32 1, ptr %13, align 4
  br label %58

52:                                               ; preds = %17
  %53 = load ptr, ptr %7, align 8, !tbaa !3
  %54 = getelementptr inbounds nuw %struct.FLAC__StreamEncoder, ptr %53, i32 0, i32 0
  %55 = load ptr, ptr %54, align 8, !tbaa !17
  %56 = getelementptr inbounds nuw %struct.FLAC__StreamEncoderProtected, ptr %55, i32 0, i32 0
  store i32 5, ptr %56, align 8, !tbaa !21
  store i32 0, ptr %6, align 4
  store i32 1, ptr %13, align 4
  br label %58

57:                                               ; preds = %39, %24
  store i32 0, ptr %13, align 4
  br label %58

58:                                               ; preds = %57, %52, %51, %46, %34
  call void @llvm.lifetime.end.p0(i64 8, ptr %12) #9
  %59 = load i32, ptr %13, align 4
  switch i32 %59, label %64 [
    i32 0, label %60
    i32 1, label %62
  ]

60:                                               ; preds = %58
  br label %14, !llvm.loop !32

61:                                               ; preds = %14
  store i32 1, ptr %6, align 4
  br label %62

62:                                               ; preds = %61, %58
  %63 = load i32, ptr %6, align 4
  ret i32 %63

64:                                               ; preds = %58
  unreachable
}