; Function Attrs: nounwind sspstrong uwtable
define internal fastcc range(i32 0, 2) i32 @full_read_(ptr noundef %0, ptr noundef %1, i64 noundef %2, ptr noundef readonly captures(none) %3, ptr noundef %4) unnamed_addr #5 {
  %6 = alloca i64, align 8
  %.not27 = icmp eq i64 %2, 0
  br i1 %.not27, label %.loopexit, label %.lr.ph

.lr.ph:                                           ; preds = %5, %14
  %.01529 = phi ptr [ %.116, %14 ], [ %1, %5 ]
  %.01828 = phi i64 [ %.119, %14 ], [ %2, %5 ]
  call void @llvm.lifetime.start.p0(i64 8, ptr nonnull %6) #11
  store i64 %.01828, ptr %6, align 8, !tbaa !23
  %7 = call i32 %3(ptr noundef %0, ptr noundef %.01529, ptr noundef nonnull %6, ptr noundef %4) #11
  switch i32 %7, label %.thread.sink.split [
    i32 0, label %8
    i32 1, label %10
    i32 3, label %.thread
  ]

8:                                                ; preds = %.lr.ph
  %9 = load i64, ptr %6, align 8, !tbaa !23
  br label %14

10:                                               ; preds = %.lr.ph
  %11 = load i64, ptr %6, align 8, !tbaa !23
  %12 = icmp eq i64 %11, 0
  br i1 %12, label %.thread.sink.split, label %14

.thread.sink.split:                               ; preds = %.lr.ph, %10
  %.sink = phi i32 [ 2, %10 ], [ 5, %.lr.ph ]
  %13 = load ptr, ptr %0, align 8, !tbaa !11
  store i32 %.sink, ptr %13, align 8, !tbaa !15
  br label %.thread

.thread:                                          ; preds = %.lr.ph, %.thread.sink.split
  call void @llvm.lifetime.end.p0(i64 8, ptr nonnull %6) #11
  br label %.loopexit

14:                                               ; preds = %8, %10
  %.pn = phi i64 [ %9, %8 ], [ %11, %10 ]
  %.116 = getelementptr inbounds nuw i8, ptr %.01529, i64 %.pn
  %.119 = sub i64 %.01828, %.pn
  call void @llvm.lifetime.end.p0(i64 8, ptr nonnull %6) #11
  %.not = icmp eq i64 %.119, 0
  br i1 %.not, label %.loopexit, label %.lr.ph

.loopexit:                                        ; preds = %14, %5, %.thread
  %.2 = phi i32 [ 0, %.thread ], [ 1, %5 ], [ 1, %14 ]
  ret i32 %.2
}